target datalayout = "e-m:e-p270:32:32-p271:32:32-p272:64:64-i64:64-i128:128-f80:128-n8:16:32:64-S128"
target triple = "x86_64-pc-linux-gnu"

; Function Attrs: nounwind sspstrong uwtable
define internal i32 @case_map(ptr noundef %0, ptr noundef %1, ptr noundef %2, ptr noundef %3, ptr noundef %4, ptr noundef %5) #0 {
  %7 = alloca ptr, align 8
  %8 = alloca ptr, align 8
  %9 = alloca ptr, align 8
  %10 = alloca ptr, align 8
  %11 = alloca ptr, align 8
  %12 = alloca ptr, align 8
  %13 = alloca i32, align 4
  %14 = alloca ptr, align 8
  %15 = alloca i32, align 4
  store ptr %0, ptr %7, align 8, !tbaa !23
  store ptr %1, ptr %8, align 8, !tbaa !14
  store ptr %2, ptr %9, align 8, !tbaa !16
  store ptr %3, ptr %10, align 8, !tbaa !16
  store ptr %4, ptr %11, align 8, !tbaa !16
  store ptr %5, ptr %12, align 8, !tbaa !17
  call void @llvm.lifetime.start.p0(i64 4, ptr %13) #3
  call void @llvm.lifetime.start.p0(i64 8, ptr %14) #3
  %16 = load ptr, ptr %10, align 8, !tbaa !16
  store ptr %16, ptr %14, align 8, !tbaa !16
  call void @llvm.lifetime.start.p0(i64 4, ptr %15) #3
  %17 = load ptr, ptr %7, align 8, !tbaa !23
  %18 = load i32, ptr %17, align 4, !tbaa !13
  store i32 %18, ptr %15, align 4, !tbaa !13
  br label %19

19:                                               ; preds = %124, %6
  %20 = load ptr, ptr %8, align 8, !tbaa !14
  %21 = load ptr, ptr %20, align 8, !tbaa !16
  %22 = load ptr, ptr %9, align 8, !tbaa !16
  %23 = icmp ult ptr %21, %22
  br i1 %23, label %24, label %28

24:                                               ; preds = %19
  %25 = load ptr, ptr %10, align 8, !tbaa !16
  %26 = load ptr, ptr %11, align 8, !tbaa !16
  %27 = icmp ult ptr %25, %26
  br label %28

28:                                               ; preds = %24, %19
  %29 = phi i1 [ false, %19 ], [ %27, %24 ]
  br i1 %29, label %30, label %125

30:                                               ; preds = %28
  %31 = load ptr, ptr %8, align 8, !tbaa !14
  %32 = load ptr, ptr %31, align 8, !tbaa !16
  %33 = getelementptr inbounds nuw i8, ptr %32, i32 1
  store ptr %33, ptr %31, align 8, !tbaa !16
  %34 = load i8, ptr %32, align 1, !tbaa !19
  %35 = zext i8 %34 to i32
  store i32 %35, ptr %13, align 4, !tbaa !13
  %36 = load i32, ptr %13, align 4, !tbaa !13
  %37 = icmp eq i32 %36, 223
  br i1 %37, label %38, label %62

38:                                               ; preds = %30
  %39 = load i32, ptr %15, align 4, !tbaa !13
  %40 = and i32 %39, 8192
  %41 = icmp ne i32 %40, 0
  br i1 %41, label %42, label %51

42:                                               ; preds = %38
  %43 = load i32, ptr %15, align 4, !tbaa !13
  %44 = or i32 %43, 262144
  store i32 %44, ptr %15, align 4, !tbaa !13
  %45 = load ptr, ptr %10, align 8, !tbaa !16
  %46 = getelementptr inbounds nuw i8, ptr %45, i32 1
  store ptr %46, ptr %10, align 8, !tbaa !16
  store i8 83, ptr %45, align 1, !tbaa !19
  %47 = load i32, ptr %15, align 4, !tbaa !13
  %48 = and i32 %47, 32768
  %49 = icmp ne i32 %48, 0
  %50 = select i1 %49, i32 115, i32 83
  store i32 %50, ptr %13, align 4, !tbaa !13
  br label %61

51:                                               ; preds = %38
  %52 = load i32, ptr %15, align 4, !tbaa !13
  %53 = and i32 %52, 524288
  %54 = icmp ne i32 %53, 0
  br i1 %54, label %55, label %60

55:                                               ; preds = %51
  %56 = load i32, ptr %15, align 4, !tbaa !13
  %57 = or i32 %56, 262144
  store i32 %57, ptr %15, align 4, !tbaa !13
  %58 = load ptr, ptr %10, align 8, !tbaa !16
  %59 = getelementptr inbounds nuw i8, ptr %58, i32 1
  store ptr %59, ptr %10, align 8, !tbaa !16
  store i8 115, ptr %58, align 1, !tbaa !19
  store i32 115, ptr %13, align 4, !tbaa !13
  br label %60

60:                                               ; preds = %55, %51
  br label %61

61:                                               ; preds = %60, %42
  br label %113

62:                                               ; preds = %30
  %63 = load i32, ptr %13, align 4, !tbaa !13
  %64 = zext i32 %63 to i64
  %65 = getelementptr inbounds nuw [256 x i16], ptr @EncISO_8859_2_CtypeTable, i64 0, i64 %64
  %66 = load i16, ptr %65, align 2, !tbaa !21
  %67 = zext i16 %66 to i32
  %68 = and i32 %67, 1024
  %69 = icmp ne i32 %68, 0
  br i1 %69, label %70, label %82

70:                                               ; preds = %62
  %71 = load i32, ptr %15, align 4, !tbaa !13
  %72 = and i32 %71, 540672
  %73 = icmp ne i32 %72, 0
  br i1 %73, label %74, label %82

74:                                               ; preds = %70
  %75 = load i32, ptr %15, align 4, !tbaa !13
  %76 = or i32 %75, 262144
  store i32 %76, ptr %15, align 4, !tbaa !13
  %77 = load i32, ptr %13, align 4, !tbaa !13
  %78 = zext i32 %77 to i64
  %79 = getelementptr inbounds nuw [256 x i8], ptr @EncISO_8859_2_ToLowerCaseTable, i64 0, i64 %78
  %80 = load i8, ptr %79, align 1, !tbaa !19
  %81 = zext i8 %80 to i32
  store i32 %81, ptr %13, align 4, !tbaa !13
  br label %112

82:                                               ; preds = %70, %62
  %83 = load i32, ptr %13, align 4, !tbaa !13
  %84 = zext i32 %83 to i64
  %85 = getelementptr inbounds nuw [256 x i16], ptr @EncISO_8859_2_CtypeTable, i64 0, i64 %84
  %86 = load i16, ptr %85, align 2, !tbaa !21
  %87 = zext i16 %86 to i32
  %88 = and i32 %87, 64
  %89 = icmp ne i32 %88, 0
  br i1 %89, label %90, label %111

90:                                               ; preds = %82
  %91 = load i32, ptr %15, align 4, !tbaa !13
  %92 = and i32 %91, 8192
  %93 = icmp ne i32 %92, 0
  br i1 %93, label %94, label %111

94:                                               ; preds = %90
  %95 = load i32, ptr %13, align 4, !tbaa !13
  %96 = icmp uge i32 %95, 177
  br i1 %96, label %97, label %105

97:                                               ; preds = %94
  %98 = load i32, ptr %13, align 4, !tbaa !13
  %99 = icmp ule i32 %98, 191
  br i1 %99, label %100, label %105

100:                                              ; preds = %97
  %101 = load i32, ptr %15, align 4, !tbaa !13
  %102 = or i32 %101, 262144
  store i32 %102, ptr %15, align 4, !tbaa !13
  %103 = load i32, ptr %13, align 4, !tbaa !13
  %104 = sub i32 %103, 16
  store i32 %104, ptr %13, align 4, !tbaa !13
  br label %110

105:                                              ; preds = %97, %94
  %106 = load i32, ptr %15, align 4, !tbaa !13
  %107 = or i32 %106, 262144
  store i32 %107, ptr %15, align 4, !tbaa !13
  %108 = load i32, ptr %13, align 4, !tbaa !13
  %109 = sub i32 %108, 32
  store i32 %109, ptr %13, align 4, !tbaa !13
  br label %110

110:                                              ; preds = %105, %100
  br label %111

111:                                              ; preds = %110, %90, %82
  br label %112

112:                                              ; preds = %111, %74
  br label %113

113:                                              ; preds = %112, %61
  %114 = load i32, ptr %13, align 4, !tbaa !13
  %115 = trunc i32 %114 to i8
  %116 = load ptr, ptr %10, align 8, !tbaa !16
  %117 = getelementptr inbounds nuw i8, ptr %116, i32 1
  store ptr %117, ptr %10, align 8, !tbaa !16
  store i8 %115, ptr %116, align 1, !tbaa !19
  %118 = load i32, ptr %15, align 4, !tbaa !13
  %119 = and i32 %118, 32768
  %120 = icmp ne i32 %119, 0
  br i1 %120, label %121, label %124

121:                                              ; preds = %113
  %122 = load i32, ptr %15, align 4, !tbaa !13
  %123 = xor i32 %122, 57344
  store i32 %123, ptr %15, align 4, !tbaa !13
  br label %124

124:                                              ; preds = %121, %113
  br label %19, !llvm.loop !25

125:                                              ; preds = %28
  %126 = load i32, ptr %15, align 4, !tbaa !13
  %127 = load ptr, ptr %7, align 8, !tbaa !23
  store i32 %126, ptr %127, align 4, !tbaa !13
  %128 = load ptr, ptr %10, align 8, !tbaa !16
  %129 = load ptr, ptr %14, align 8, !tbaa !16
  %130 = ptrtoint ptr %128 to i64
  %131 = ptrtoint ptr %129 to i64
  %132 = sub i64 %130, %131
  %133 = trunc i64 %132 to i32
  call void @llvm.lifetime.end.p0(i64 4, ptr %15) #3
  call void @llvm.lifetime.end.p0(i64 8, ptr %14) #3
  call void @llvm.lifetime.end.p0(i64 4, ptr %13) #3
  ret i32 %133
}