; Function Attrs: nofree norecurse nosync nounwind sspstrong memory(read, argmem: readwrite, inaccessiblemem: none) uwtable
define internal i32 @case_map(ptr noundef captures(none) %0, ptr noundef captures(none) %1, ptr noundef readnone captures(address) %2, ptr noundef %3, ptr noundef readnone captures(address) %4, ptr readnone captures(none) %5) #4 {
  %7 = load i32, ptr %0, align 4, !tbaa !14
  %8 = load ptr, ptr %1, align 8, !tbaa !6
  %9 = icmp ult ptr %8, %2
  %10 = icmp ult ptr %3, %4
  %11 = and i1 %9, %10
  br i1 %11, label %.lr.ph, label %._crit_edge

.lr.ph:                                           ; preds = %6, %48
  %12 = phi ptr [ %52, %48 ], [ %8, %6 ]
  %.051 = phi i32 [ %spec.select, %48 ], [ %7, %6 ]
  %.03550 = phi ptr [ %49, %48 ], [ %3, %6 ]
  %13 = getelementptr inbounds nuw i8, ptr %12, i64 1
  store ptr %13, ptr %1, align 8, !tbaa !6
  %14 = load i8, ptr %12, align 1, !tbaa !11
  %15 = icmp eq i8 %14, -33
  br i1 %15, label %16, label %28

16:                                               ; preds = %.lr.ph
  %17 = and i32 %.051, 8192
  %.not44 = icmp eq i32 %17, 0
  br i1 %.not44, label %23, label %18

18:                                               ; preds = %16
  %19 = or i32 %.051, 262144
  %20 = getelementptr inbounds nuw i8, ptr %.03550, i64 1
  store i8 83, ptr %.03550, align 1, !tbaa !11
  %21 = and i32 %.051, 32768
  %.not46 = icmp eq i32 %21, 0
  %22 = select i1 %.not46, i8 83, i8 115
  br label %48

23:                                               ; preds = %16
  %24 = and i32 %.051, 524288
  %.not45 = icmp eq i32 %24, 0
  br i1 %.not45, label %48, label %25

25:                                               ; preds = %23
  %26 = or i32 %.051, 262144
  %27 = getelementptr inbounds nuw i8, ptr %.03550, i64 1
  store i8 115, ptr %.03550, align 1, !tbaa !11
  br label %48

28:                                               ; preds = %.lr.ph
  %29 = zext i8 %14 to i64
  %30 = getelementptr inbounds nuw [256 x i16], ptr @EncISO_8859_2_CtypeTable, i64 0, i64 %29
  %31 = load i16, ptr %30, align 2, !tbaa !12
  %32 = and i16 %31, 1024
  %.not = icmp eq i16 %32, 0
  %33 = and i32 %.051, 540672
  %.not41 = icmp eq i32 %33, 0
  %or.cond48 = select i1 %.not, i1 true, i1 %.not41
  br i1 %or.cond48, label %38, label %34

34:                                               ; preds = %28
  %35 = or i32 %.051, 262144
  %36 = getelementptr inbounds nuw [256 x i8], ptr @EncISO_8859_2_ToLowerCaseTable, i64 0, i64 %29
  %37 = load i8, ptr %36, align 1, !tbaa !11
  br label %48

38:                                               ; preds = %28
  %39 = and i16 %31, 64
  %.not42 = icmp eq i16 %39, 0
  %40 = and i32 %.051, 8192
  %.not43 = icmp eq i32 %40, 0
  %or.cond49 = select i1 %.not42, i1 true, i1 %.not43
  br i1 %or.cond49, label %48, label %41

41:                                               ; preds = %38
  %42 = add i8 %14, 79
  %or.cond = icmp ult i8 %42, 15
  %43 = or i32 %.051, 262144
  br i1 %or.cond, label %44, label %46

44:                                               ; preds = %41
  %45 = add nsw i8 %14, -16
  br label %48

46:                                               ; preds = %41
  %47 = add i8 %14, -32
  br label %48

48:                                               ; preds = %34, %44, %46, %38, %18, %25, %23
  %.037 = phi i8 [ %22, %18 ], [ 115, %25 ], [ -33, %23 ], [ %37, %34 ], [ %45, %44 ], [ %47, %46 ], [ %14, %38 ]
  %.136 = phi ptr [ %20, %18 ], [ %27, %25 ], [ %.03550, %23 ], [ %.03550, %34 ], [ %.03550, %44 ], [ %.03550, %46 ], [ %.03550, %38 ]
  %.1 = phi i32 [ %19, %18 ], [ %26, %25 ], [ %.051, %23 ], [ %35, %34 ], [ %43, %44 ], [ %43, %46 ], [ %.051, %38 ]
  %49 = getelementptr inbounds nuw i8, ptr %.136, i64 1
  store i8 %.037, ptr %.136, align 1, !tbaa !11
  %50 = and i32 %.1, 32768
  %.not47 = icmp eq i32 %50, 0
  %51 = xor i32 %.1, 57344
  %spec.select = select i1 %.not47, i32 %.1, i32 %51
  %52 = load ptr, ptr %1, align 8, !tbaa !6
  %53 = icmp ult ptr %52, %2
  %54 = icmp ult ptr %49, %4
  %55 = select i1 %53, i1 %54, i1 false
  br i1 %55, label %.lr.ph, label %._crit_edge, !llvm.loop !16

._crit_edge:                                      ; preds = %48, %6
  %.035.lcssa = phi ptr [ %3, %6 ], [ %49, %48 ]
  %.0.lcssa = phi i32 [ %7, %6 ], [ %spec.select, %48 ]
  store i32 %.0.lcssa, ptr %0, align 4, !tbaa !14
  %56 = ptrtoint ptr %.035.lcssa to i64
  %57 = ptrtoint ptr %3 to i64
  %58 = sub i64 %56, %57
  %59 = trunc i64 %58 to i32
  ret i32 %59
}